; Function Attrs: mustprogress uwtable
define noundef i32 @_ZN3zmq14tcp_listener_t17set_local_addressEPKc(ptr noundef nonnull align 8 dereferenceable(1584) %this, ptr noundef %addr_) local_unnamed_addr #0 align 2 personality ptr @__gxx_personality_v0 {
entry:
  %ss.i.i = alloca %struct.sockaddr_storage, align 8
  %addr.i.i = alloca %"class.zmq::tcp_address_t", align 4
  %ref.tmp = alloca %"class.std::__cxx11::basic_string", align 8
  %ref.tmp9 = alloca %"struct.zmq::endpoint_uri_pair_t", align 8
  %use_fd = getelementptr inbounds i8, ptr %this, i64 980
  %0 = load i32, ptr %use_fd, align 4
  %cmp.not = icmp eq i32 %0, -1
  br i1 %cmp.not, label %if.else, label %if.then

if.then:                                          ; preds = %entry
  %_s = getelementptr inbounds i8, ptr %this, i64 1464
  store i32 %0, ptr %_s, align 8
  br label %if.end6

if.else:                                          ; preds = %entry
  %call = tail call noundef i32 @_ZN3zmq14tcp_listener_t13create_socketEPKc(ptr noundef nonnull align 8 dereferenceable(1584) %this, ptr noundef %addr_), !range !9
  %cmp4 = icmp eq i32 %call, -1
  br i1 %cmp4, label %return, label %if.else.if.end6_crit_edge

if.else.if.end6_crit_edge:                        ; preds = %if.else
  %_s7.phi.trans.insert = getelementptr inbounds i8, ptr %this, i64 1464
  %.pre = load i32, ptr %_s7.phi.trans.insert, align 8
  br label %if.end6

if.end6:                                          ; preds = %if.else.if.end6_crit_edge, %if.then
  %1 = phi i32 [ %.pre, %if.else.if.end6_crit_edge ], [ %0, %if.then ]
  %_s7 = getelementptr inbounds i8, ptr %this, i64 1464
  call void @llvm.lifetime.start.p0(i64 128, ptr nonnull %ss.i.i), !noalias !10
  call void @llvm.lifetime.start.p0(i64 60, ptr nonnull %addr.i.i), !noalias !10
  %call.i.i = call noundef i32 @_ZN3zmq18get_socket_addressEiNS_12socket_end_tEP16sockaddr_storage(i32 noundef %1, i32 noundef 0, ptr noundef nonnull %ss.i.i), !noalias !13
  %cmp.i.i = icmp eq i32 %call.i.i, 0
  br i1 %cmp.i.i, label %if.then.i.i, label %if.end.i.i

if.then.i.i:                                      ; preds = %if.end6
  call void @_ZNSt7__cxx1112basic_stringIcSt11char_traitsIcESaIcEEC1Ev(ptr noundef nonnull align 8 dereferenceable(32) %ref.tmp) #11
  br label %_ZNK3zmq14tcp_listener_t15get_socket_nameB5cxx11EiNS_12socket_end_tE.exit

if.end.i.i:                                       ; preds = %if.end6
  call void @_ZN3zmq13tcp_address_tC1EPK8sockaddrj(ptr noundef nonnull align 4 dereferenceable(57) %addr.i.i, ptr noundef nonnull %ss.i.i, i32 noundef %call.i.i), !noalias !13
  call void @_ZNSt7__cxx1112basic_stringIcSt11char_traitsIcESaIcEEC1Ev(ptr noundef nonnull align 8 dereferenceable(32) %ref.tmp) #11
  %call1.i.i = invoke noundef i32 @_ZNK3zmq13tcp_address_t9to_stringERNSt7__cxx1112basic_stringIcSt11char_traitsIcESaIcEEE(ptr noundef nonnull align 4 dereferenceable(57) %addr.i.i, ptr noundef nonnull align 8 dereferenceable(32) %ref.tmp)
          to label %_ZNK3zmq14tcp_listener_t15get_socket_nameB5cxx11EiNS_12socket_end_tE.exit unwind label %lpad.i.i

common.resume:                                    ; preds = %lpad, %lpad.i.i
  %ref.tmp9.sink = phi ptr [ %ref.tmp9, %lpad ], [ %ref.tmp, %lpad.i.i ]
  %common.resume.op = phi { ptr, i32 } [ %5, %lpad ], [ %2, %lpad.i.i ]
  call void @_ZNSt7__cxx1112basic_stringIcSt11char_traitsIcESaIcEED1Ev(ptr noundef nonnull align 8 dereferenceable(32) %ref.tmp9.sink) #11
  resume { ptr, i32 } %common.resume.op

lpad.i.i:                                         ; preds = %if.end.i.i
  %2 = landingpad { ptr, i32 }
          cleanup
  br label %common.resume

_ZNK3zmq14tcp_listener_t15get_socket_nameB5cxx11EiNS_12socket_end_tE.exit: ; preds = %if.then.i.i, %if.end.i.i
  call void @llvm.lifetime.end.p0(i64 128, ptr nonnull %ss.i.i), !noalias !10
  call void @llvm.lifetime.end.p0(i64 60, ptr nonnull %addr.i.i), !noalias !10
  %_endpoint = getelementptr inbounds i8, ptr %this, i64 1488
  %call8 = call noundef nonnull align 8 dereferenceable(32) ptr @_ZNSt7__cxx1112basic_stringIcSt11char_traitsIcESaIcEEaSEOS4_(ptr noundef nonnull align 8 dereferenceable(32) %_endpoint, ptr noundef nonnull align 8 dereferenceable(32) %ref.tmp) #11
  call void @_ZNSt7__cxx1112basic_stringIcSt11char_traitsIcESaIcEED1Ev(ptr noundef nonnull align 8 dereferenceable(32) %ref.tmp) #11
  %_socket = getelementptr inbounds i8, ptr %this, i64 1480
  %3 = load ptr, ptr %_socket, align 8
  call void @_ZN3zmq35make_unconnected_bind_endpoint_pairERKNSt7__cxx1112basic_stringIcSt11char_traitsIcESaIcEEE(ptr nonnull sret(%"struct.zmq::endpoint_uri_pair_t") align 8 %ref.tmp9, ptr noundef nonnull align 8 dereferenceable(32) %_endpoint)
  %4 = load i32, ptr %_s7, align 8
  invoke void @_ZN3zmq13socket_base_t15event_listeningERKNS_19endpoint_uri_pair_tEi(ptr noundef nonnull align 8 dereferenceable(1825) %3, ptr noundef nonnull align 8 dereferenceable(68) %ref.tmp9, i32 noundef %4)
          to label %invoke.cont unwind label %lpad

invoke.cont:                                      ; preds = %_ZNK3zmq14tcp_listener_t15get_socket_nameB5cxx11EiNS_12socket_end_tE.exit
  %remote.i = getelementptr inbounds i8, ptr %ref.tmp9, i64 32
  call void @_ZNSt7__cxx1112basic_stringIcSt11char_traitsIcESaIcEED1Ev(ptr noundef nonnull align 8 dereferenceable(32) %remote.i) #11
  call void @_ZNSt7__cxx1112basic_stringIcSt11char_traitsIcESaIcEED1Ev(ptr noundef nonnull align 8 dereferenceable(32) %ref.tmp9) #11
  br label %return

lpad:                                             ; preds = %_ZNK3zmq14tcp_listener_t15get_socket_nameB5cxx11EiNS_12socket_end_tE.exit
  %5 = landingpad { ptr, i32 }
          cleanup
  %remote.i1 = getelementptr inbounds i8, ptr %ref.tmp9, i64 32
  call void @_ZNSt7__cxx1112basic_stringIcSt11char_traitsIcESaIcEED1Ev(ptr noundef nonnull align 8 dereferenceable(32) %remote.i1) #11
  br label %common.resume

return:                                           ; preds = %if.else, %invoke.cont
  %retval.0 = phi i32 [ 0, %invoke.cont ], [ -1, %if.else ]
  ret i32 %retval.0
}